; Function Attrs: nounwind uwtable
define dso_local ptr @new_variable(ptr noundef %0, ptr noundef %1, i32 noundef %2) local_unnamed_addr #0 {
  %4 = tail call ptr @mm_alloc(i64 noundef 32) #6
  %5 = tail call ptr @mm_strdup(ptr noundef %0) #6
  store ptr %5, ptr %4, align 8
  %6 = getelementptr inbounds nuw i8, ptr %4, i64 8
  store ptr %1, ptr %6, align 8
  %7 = getelementptr inbounds nuw i8, ptr %4, i64 16
  store i32 %2, ptr %7, align 8
  %8 = load ptr, ptr @allvariables, align 8
  %9 = getelementptr inbounds nuw i8, ptr %4, i64 24
  store ptr %8, ptr %9, align 8
  store ptr %4, ptr @allvariables, align 8
  ret ptr %4
}